; Function Attrs: mustprogress uwtable
define hidden noundef zeroext i1 @_ZN4cvc58internal4expr20getVariablesInternalENS0_12NodeTemplateILb0EEERSt13unordered_setINS2_ILb1EEESt4hashIS5_ESt8equal_toIS5_ESaIS5_EERS4_IS3_S6_IS3_ES8_IS3_ESaIS3_EEb(ptr noundef readonly captures(none) %0, ptr noundef nonnull align 8 dereferenceable(56) %1, ptr noundef nonnull align 8 dereferenceable(56) %2, i1 noundef zeroext %3) local_unnamed_addr #3 personality ptr @__gxx_personality_v0 {
  %5 = alloca i8, align 1
  %6 = alloca %"class.cvc5::internal::NodeTemplate", align 8
  call void @llvm.lifetime.start.p0(i64 1, ptr nonnull %5) #21
  %7 = load ptr, ptr %0, align 8, !tbaa !3
  store ptr %7, ptr %6, align 8, !tbaa !3
  %8 = call noundef zeroext i1 @_ZN4cvc58internal4expr22checkVariablesInternalENS0_12NodeTemplateILb0EEERSt13unordered_setINS2_ILb1EEESt4hashIS5_ESt8equal_toIS5_ESaIS5_EERS4_IS3_S6_IS3_ES8_IS3_ESaIS3_EERbbb(ptr noundef nonnull %6, ptr noundef nonnull align 8 dereferenceable(56) %1, ptr noundef nonnull align 8 dereferenceable(56) %2, ptr noundef nonnull align 1 dereferenceable(1) %5, i1 noundef zeroext %3, i1 noundef zeroext false)
  call void @llvm.lifetime.end.p0(i64 1, ptr nonnull %5) #21
  ret i1 %8
}